; ModuleID = '15/1411.c'
source_filename = "15/1411.c"
target datalayout = "e-m:e-p270:32:32-p271:32:32-p272:64:64-i64:64-f80:128-n8:16:32:64-S128"
target triple = "x86_64-pc-linux-gnu"

@.str = private unnamed_addr constant [3 x i8] c"%d\00", align 1

; Function Attrs: noinline nounwind uwtable
define dso_local void @main() #0 {
  %1 = alloca i32, align 4
  %2 = alloca i32, align 4
  %3 = alloca i32, align 4
  %4 = alloca [1000 x [1000 x i32]], align 16
  %5 = alloca i32, align 4
  %6 = alloca i32, align 4
  %7 = alloca i32, align 4
  %8 = alloca i32, align 4
  %9 = call i32 (i8*, ...) @__isoc99_scanf(i8* getelementptr inbounds ([3 x i8], [3 x i8]* @.str, i64 0, i64 0), i32* %3)
  store i32 0, i32* %1, align 4
  br label %10

10:                                               ; preds = %31, %0
  %11 = load i32, i32* %1, align 4
  %12 = load i32, i32* %3, align 4
  %13 = icmp slt i32 %11, %12
  br i1 %13, label %14, label %34

14:                                               ; preds = %10
  store i32 0, i32* %2, align 4
  br label %15

15:                                               ; preds = %27, %14
  %16 = load i32, i32* %2, align 4
  %17 = load i32, i32* %3, align 4
  %18 = icmp slt i32 %16, %17
  br i1 %18, label %19, label %30

19:                                               ; preds = %15
  %20 = load i32, i32* %1, align 4
  %21 = sext i32 %20 to i64
  %22 = getelementptr inbounds [1000 x [1000 x i32]], [1000 x [1000 x i32]]* %4, i64 0, i64 %21
  %23 = load i32, i32* %2, align 4
  %24 = sext i32 %23 to i64
  %25 = getelementptr inbounds [1000 x i32], [1000 x i32]* %22, i64 0, i64 %24
  %26 = call i32 (i8*, ...) @__isoc99_scanf(i8* getelementptr inbounds ([3 x i8], [3 x i8]* @.str, i64 0, i64 0), i32* %25)
  br label %27

27:                                               ; preds = %19
  %28 = load i32, i32* %2, align 4
  %29 = add nsw i32 %28, 1
  store i32 %29, i32* %2, align 4
  br label %15

30:                                               ; preds = %15
  br label %31

31:                                               ; preds = %30
  %32 = load i32, i32* %1, align 4
  %33 = add nsw i32 %32, 1
  store i32 %33, i32* %1, align 4
  br label %10

34:                                               ; preds = %10
  store i32 0, i32* %1, align 4
  br label %35

35:                                               ; preds = %63, %34
  %36 = load i32, i32* %1, align 4
  %37 = load i32, i32* %3, align 4
  %38 = icmp slt i32 %36, %37
  br i1 %38, label %39, label %66

39:                                               ; preds = %35
  store i32 0, i32* %2, align 4
  br label %40

40:                                               ; preds = %59, %39
  %41 = load i32, i32* %2, align 4
  %42 = load i32, i32* %3, align 4
  %43 = icmp slt i32 %41, %42
  br i1 %43, label %44, label %62

44:                                               ; preds = %40
  %45 = load i32, i32* %1, align 4
  %46 = sext i32 %45 to i64
  %47 = getelementptr inbounds [1000 x [1000 x i32]], [1000 x [1000 x i32]]* %4, i64 0, i64 %46
  %48 = load i32, i32* %2, align 4
  %49 = sext i32 %48 to i64
  %50 = getelementptr inbounds [1000 x i32], [1000 x i32]* %47, i64 0, i64 %49
  %51 = load i32, i32* %50, align 4
  %52 = icmp eq i32 %51, 0
  br i1 %52, label %53, label %58

53:                                               ; preds = %44
  %54 = load i32, i32* %1, align 4
  %55 = add nsw i32 %54, 1
  store i32 %55, i32* %5, align 4
  %56 = load i32, i32* %2, align 4
  %57 = add nsw i32 %56, 1
  store i32 %57, i32* %6, align 4
  br label %67

58:                                               ; preds = %44
  br label %59

59:                                               ; preds = %58
  %60 = load i32, i32* %2, align 4
  %61 = add nsw i32 %60, 1
  store i32 %61, i32* %2, align 4
  br label %40

62:                                               ; preds = %40
  br label %63

63:                                               ; preds = %62
  %64 = load i32, i32* %1, align 4
  %65 = add nsw i32 %64, 1
  store i32 %65, i32* %1, align 4
  br label %35

66:                                               ; preds = %35
  br label %67

67:                                               ; preds = %66, %53
  %68 = load i32, i32* %3, align 4
  %69 = sub nsw i32 %68, 1
  store i32 %69, i32* %1, align 4
  br label %70

70:                                               ; preds = %98, %67
  %71 = load i32, i32* %1, align 4
  %72 = icmp sge i32 %71, 0
  br i1 %72, label %73, label %101

73:                                               ; preds = %70
  %74 = load i32, i32* %3, align 4
  %75 = sub nsw i32 %74, 1
  store i32 %75, i32* %2, align 4
  br label %76

76:                                               ; preds = %94, %73
  %77 = load i32, i32* %2, align 4
  %78 = icmp sge i32 %77, 0
  br i1 %78, label %79, label %97

79:                                               ; preds = %76
  %80 = load i32, i32* %1, align 4
  %81 = sext i32 %80 to i64
  %82 = getelementptr inbounds [1000 x [1000 x i32]], [1000 x [1000 x i32]]* %4, i64 0, i64 %81
  %83 = load i32, i32* %2, align 4
  %84 = sext i32 %83 to i64
  %85 = getelementptr inbounds [1000 x i32], [1000 x i32]* %82, i64 0, i64 %84
  %86 = load i32, i32* %85, align 4
  %87 = icmp eq i32 %86, 0
  br i1 %87, label %88, label %93

88:                                               ; preds = %79
  %89 = load i32, i32* %1, align 4
  %90 = sub nsw i32 %89, 1
  store i32 %90, i32* %7, align 4
  %91 = load i32, i32* %2, align 4
  %92 = sub nsw i32 %91, 1
  store i32 %92, i32* %8, align 4
  br label %102

93:                                               ; preds = %79
  br label %94

94:                                               ; preds = %93
  %95 = load i32, i32* %2, align 4
  %96 = add nsw i32 %95, -1
  store i32 %96, i32* %2, align 4
  br label %76

97:                                               ; preds = %76
  br label %98

98:                                               ; preds = %97
  %99 = load i32, i32* %1, align 4
  %100 = add nsw i32 %99, -1
  store i32 %100, i32* %1, align 4
  br label %70

101:                                              ; preds = %70
  br label %102

102:                                              ; preds = %101, %88
  %103 = load i32, i32* %7, align 4
  %104 = load i32, i32* %5, align 4
  %105 = sub nsw i32 %103, %104
  %106 = add nsw i32 %105, 1
  %107 = load i32, i32* %8, align 4
  %108 = load i32, i32* %6, align 4
  %109 = sub nsw i32 %107, %108
  %110 = add nsw i32 %109, 1
  %111 = mul nsw i32 %106, %110
  %112 = call i32 (i8*, ...) @printf(i8* getelementptr inbounds ([3 x i8], [3 x i8]* @.str, i64 0, i64 0), i32 %111)
  ret void
}

declare dso_local i32 @__isoc99_scanf(i8*, ...) #1

declare dso_local i32 @printf(i8*, ...) #1


!llvm.module.flags = !{!0}
!llvm.ident = !{!1}

!0 = !{i32 1, !"wchar_size", i32 4}
!1 = !{!"clang version 10.0.0-4ubuntu1 "}
